#include <math.h>
#include <stdio.h>
#include <stdlib.h>
#include <string.h>

int main(int argc, char* argv[])
{


	int sum=0;
	int m,i,n;

	scanf("%d",&n);
	
	for(i=n;i>=1;i--){
		m=i/10;
			if(i%7==0)
				continue;
			if(i%10==7)
				continue;
			if(m%10==7)
				continue;
			if(m%10!=7||i%10!=7||i%7!=0)
				sum+=i*i;
	}
		
		printf("%d",sum);
		return 0;
}

